; Function Attrs: mustprogress uwtable
define internal void @_ZNK5faiss12_GLOBAL__N_114IVFSQScannerIPINS0_10DCTemplateINS0_17QuantizerTemplateINS0_9Codec4bitELb0ELi1EEENS0_12SimilarityIPILi1EEELi1EEELi0EE16scan_codes_rangeEmPKhPKlfRNS_16RangeQueryResultE(ptr nocapture noundef nonnull readonly align 8 dereferenceable(112) %0, i64 noundef %1, ptr nocapture noundef readonly %2, ptr nocapture noundef readonly %3, float noundef %4, ptr noundef nonnull align 8 dereferenceable(24) %5) unnamed_addr #0 align 2 {
  %.not18 = icmp eq i64 %1, 0
  br i1 %.not18, label %._crit_edge, label %.lr.ph

.lr.ph:                                           ; preds = %6
  %7 = getelementptr inbounds i8, ptr %0, i64 108
  %8 = getelementptr inbounds i8, ptr %0, i64 80
  %9 = getelementptr inbounds i8, ptr %0, i64 64
  %10 = getelementptr inbounds i8, ptr %0, i64 88
  %11 = getelementptr inbounds i8, ptr %0, i64 96
  %12 = getelementptr inbounds i8, ptr %0, i64 17
  %13 = getelementptr inbounds i8, ptr %0, i64 8
  %14 = getelementptr inbounds i8, ptr %0, i64 32
  br label %15

15:                                               ; preds = %.lr.ph, %59
  %.017 = phi ptr [ %2, %.lr.ph ], [ %62, %59 ]
  %.01315 = phi i64 [ 0, %.lr.ph ], [ %60, %59 ]
  %16 = load float, ptr %7, align 4
  %17 = load i64, ptr %8, align 8
  %.not.i.i = icmp eq i64 %17, 0
  br i1 %.not.i.i, label %_ZNK5faiss12_GLOBAL__N_110DCTemplateINS0_17QuantizerTemplateINS0_9Codec4bitELb0ELi1EEENS0_12SimilarityIPILi1EEELi1EE13query_to_codeEPKh.exit, label %.lr.ph.i.i

.lr.ph.i.i:                                       ; preds = %15
  %18 = load ptr, ptr %9, align 8
  %19 = load ptr, ptr %10, align 8
  %20 = load ptr, ptr %11, align 8
  br label %21

21:                                               ; preds = %21, %.lr.ph.i.i
  %.022.i.i = phi i64 [ 0, %.lr.ph.i.i ], [ %44, %21 ]
  %.sroa.5.021.i.i = phi float [ 0.000000e+00, %.lr.ph.i.i ], [ %43, %21 ]
  %.sroa.2.020.i.i = phi ptr [ %18, %.lr.ph.i.i ], [ %41, %21 ]
  %22 = trunc i64 %.022.i.i to i32
  %23 = sdiv i32 %22, 2
  %24 = sext i32 %23 to i64
  %25 = getelementptr inbounds i8, ptr %.017, i64 %24
  %26 = load i8, ptr %25, align 1
  %27 = zext i8 %26 to i32
  %28 = shl i32 %22, 2
  %29 = and i32 %28, 4
  %30 = lshr i32 %27, %29
  %31 = and i32 %30, 15
  %32 = sitofp i32 %31 to float
  %33 = fadd float %32, 5.000000e-01
  %34 = fdiv float %33, 1.500000e+01
  %sext.i.i = shl i64 %.022.i.i, 32
  %35 = ashr exact i64 %sext.i.i, 32
  %36 = getelementptr inbounds float, ptr %19, i64 %35
  %37 = load float, ptr %36, align 4
  %38 = getelementptr inbounds float, ptr %20, i64 %35
  %39 = load float, ptr %38, align 4
  %40 = tail call noundef float @llvm.fmuladd.f32(float %34, float %39, float %37)
  %41 = getelementptr inbounds i8, ptr %.sroa.2.020.i.i, i64 4
  %42 = load float, ptr %.sroa.2.020.i.i, align 4
  %43 = tail call float @llvm.fmuladd.f32(float %42, float %40, float %.sroa.5.021.i.i)
  %44 = add nuw i64 %.022.i.i, 1
  %exitcond.not.i.i = icmp eq i64 %44, %17
  br i1 %exitcond.not.i.i, label %_ZNK5faiss12_GLOBAL__N_110DCTemplateINS0_17QuantizerTemplateINS0_9Codec4bitELb0ELi1EEENS0_12SimilarityIPILi1EEELi1EE13query_to_codeEPKh.exit, label %21, !llvm.loop !69

_ZNK5faiss12_GLOBAL__N_110DCTemplateINS0_17QuantizerTemplateINS0_9Codec4bitELb0ELi1EEENS0_12SimilarityIPILi1EEELi1EE13query_to_codeEPKh.exit: ; preds = %21, %15
  %.sroa.5.0.lcssa.i.i = phi float [ 0.000000e+00, %15 ], [ %43, %21 ]
  %45 = fadd float %16, %.sroa.5.0.lcssa.i.i
  %46 = fcmp ogt float %45, %4
  br i1 %46, label %47, label %59

47:                                               ; preds = %_ZNK5faiss12_GLOBAL__N_110DCTemplateINS0_17QuantizerTemplateINS0_9Codec4bitELb0ELi1EEENS0_12SimilarityIPILi1EEELi1EE13query_to_codeEPKh.exit
  %48 = load i8, ptr %12, align 1
  %49 = and i8 %48, 1
  %.not = icmp eq i8 %49, 0
  br i1 %.not, label %54, label %50

50:                                               ; preds = %47
  %51 = load i64, ptr %13, align 8
  %52 = shl i64 %51, 32
  %53 = or i64 %52, %.01315
  br label %57

54:                                               ; preds = %47
  %55 = getelementptr inbounds i64, ptr %3, i64 %.01315
  %56 = load i64, ptr %55, align 8
  br label %57

57:                                               ; preds = %54, %50
  %58 = phi i64 [ %53, %50 ], [ %56, %54 ]
  tail call void @_ZN5faiss16RangeQueryResult3addEfl(ptr noundef nonnull align 8 dereferenceable(24) %5, float noundef %45, i64 noundef %58)
  br label %59

59:                                               ; preds = %_ZNK5faiss12_GLOBAL__N_110DCTemplateINS0_17QuantizerTemplateINS0_9Codec4bitELb0ELi1EEENS0_12SimilarityIPILi1EEELi1EE13query_to_codeEPKh.exit, %57
  %60 = add nuw i64 %.01315, 1
  %61 = load i64, ptr %14, align 8
  %62 = getelementptr inbounds i8, ptr %.017, i64 %61
  %exitcond.not = icmp eq i64 %60, %1
  br i1 %exitcond.not, label %._crit_edge, label %15, !llvm.loop !149

._crit_edge:                                      ; preds = %59, %6
  ret void
}